target datalayout = "e-m:e-p270:32:32-p271:32:32-p272:64:64-i64:64-i128:128-f80:128-n8:16:32:64-S128"
target triple = "x86_64-pc-linux-gnu"

%"class.open3d::utility::optional" = type { %"struct.open3d::utility::constexpr_optional_base" }
%"struct.open3d::utility::constexpr_optional_base" = type { i8, %"union.open3d::utility::constexpr_storage_t" }
%"union.open3d::utility::constexpr_storage_t" = type { double }
%"class.Eigen::Matrix" = type { %"class.Eigen::PlainObjectBase" }
%"class.Eigen::PlainObjectBase" = type { %"class.Eigen::DenseStorage" }
%"class.Eigen::DenseStorage" = type { %"struct.Eigen::internal::plain_array" }
%"struct.Eigen::internal::plain_array" = type { [3 x double] }
%"class.open3d::geometry::Line3D" = type { ptr, %"class.Eigen::ParametrizedLine", i32, double, double, double }
%"class.Eigen::ParametrizedLine" = type { %"class.Eigen::Matrix", %"class.Eigen::Matrix" }
%"class.open3d::geometry::Segment3D" = type { %"class.open3d::geometry::Line3D", %"class.Eigen::Matrix", double }

@.str.4 = private unnamed_addr constant [20 x i8] c"bad optional access\00", align 1
@_ZTIN6open3d7utility19bad_optional_accessE = linkonce_odr constant { ptr, ptr, ptr } { ptr getelementptr inbounds (ptr, ptr @_ZTVN10__cxxabiv120__si_class_type_infoE, i64 2), ptr @_ZTSN6open3d7utility19bad_optional_accessE, ptr @_ZTISt11logic_error }, comdat, align 8
@_ZTVN6open3d7utility19bad_optional_accessE = linkonce_odr unnamed_addr constant { [5 x ptr] } { [5 x ptr] [ptr null, ptr @_ZTIN6open3d7utility19bad_optional_accessE, ptr @_ZNSt11logic_errorD2Ev, ptr @_ZN6open3d7utility19bad_optional_accessD0Ev, ptr @_ZNKSt11logic_error4whatEv] }, comdat, align 8

; Function Attrs: mustprogress nounwind ssp uwtable
define linkonce_odr void @_ZN6open3d7utility19constexpr_storage_tIdEC2ENS0_14trivial_init_tE(ptr noundef nonnull align 8 dereferenceable(8) %0) unnamed_addr #0 comdat align 2 {
  %2 = alloca ptr, align 8
  store ptr %0, ptr %2, align 8, !tbaa !703
  %3 = load ptr, ptr %2, align 8
  store i8 0, ptr %3, align 8, !tbaa !68
  ret void
}

; Function Attrs: noinline noreturn nounwind ssp uwtable
define linkonce_odr hidden void @__clang_call_terminate(ptr noundef %0) #8 comdat {
  %2 = call ptr @__cxa_begin_catch(ptr %0) #21
  call void @_ZSt9terminatev() #23
  unreachable
}

; Function Attrs: mustprogress nounwind ssp uwtable
define linkonce_odr noundef nonnull align 8 dereferenceable(8) ptr @_ZNR6open3d7utility8optionalIdEdeEv(ptr noundef nonnull align 8 dereferenceable(16) %0) #0 comdat align 2 {
  %2 = alloca ptr, align 8
  store ptr %0, ptr %2, align 8, !tbaa !443
  %3 = load ptr, ptr %2, align 8
  %4 = call noundef nonnull align 8 dereferenceable(8) ptr @_ZNR6open3d7utility8optionalIdE13contained_valEv(ptr noundef nonnull align 8 dereferenceable(16) %3)
  ret ptr %4
}

; Function Attrs: mustprogress nounwind ssp uwtable
define linkonce_odr noundef ptr @_ZN6open3d7utility8optionalIdE7dataptrEv(ptr noundef nonnull align 8 dereferenceable(16) %0) #0 comdat align 2 {
  %2 = alloca ptr, align 8
  store ptr %0, ptr %2, align 8, !tbaa !443
  %3 = load ptr, ptr %2, align 8
  %4 = getelementptr inbounds nuw %"struct.open3d::utility::constexpr_optional_base", ptr %3, i32 0, i32 1
  ret ptr %4
}

; Function Attrs: mustprogress nounwind ssp uwtable
define linkonce_odr void @_ZN6open3d7utility23constexpr_optional_baseIdEC2Ev(ptr noundef nonnull align 8 dereferenceable(16) %0) unnamed_addr #0 comdat align 2 {
  %2 = alloca ptr, align 8
  store ptr %0, ptr %2, align 8, !tbaa !701
  %3 = load ptr, ptr %2, align 8
  %4 = getelementptr inbounds nuw %"struct.open3d::utility::constexpr_optional_base", ptr %3, i32 0, i32 0
  store i8 0, ptr %4, align 8, !tbaa !640
  %5 = getelementptr inbounds nuw %"struct.open3d::utility::constexpr_optional_base", ptr %3, i32 0, i32 1
  call void @_ZN6open3d7utility19constexpr_storage_tIdEC2ENS0_14trivial_init_tE(ptr noundef nonnull align 8 dereferenceable(8) %5) #21
  ret void
}

; Function Attrs: mustprogress ssp uwtable
define linkonce_odr void @_ZN6open3d7utility19bad_optional_accessC2EPKc(ptr noundef nonnull align 8 dereferenceable(16) %0, ptr noundef %1) unnamed_addr #1 comdat align 2 {
  %3 = alloca ptr, align 8
  %4 = alloca ptr, align 8
  store ptr %0, ptr %3, align 8, !tbaa !644
  store ptr %1, ptr %4, align 8, !tbaa !625
  %5 = load ptr, ptr %3, align 8
  %6 = load ptr, ptr %4, align 8, !tbaa !625
  call void @_ZNSt11logic_errorC2EPKc(ptr noundef nonnull align 8 dereferenceable(16) %5, ptr noundef %6)
  store ptr getelementptr inbounds inrange(-16, 24) ({ [5 x ptr] }, ptr @_ZTVN6open3d7utility19bad_optional_accessE, i32 0, i32 0, i32 2), ptr %5, align 8, !tbaa !31
  ret void
}

; Function Attrs: mustprogress nounwind ssp uwtable
define linkonce_odr noundef nonnull align 8 dereferenceable(8) ptr @_ZNR6open3d7utility8optionalIdE13contained_valEv(ptr noundef nonnull align 8 dereferenceable(16) %0) #0 comdat align 2 {
  %2 = alloca ptr, align 8
  store ptr %0, ptr %2, align 8, !tbaa !443
  %3 = load ptr, ptr %2, align 8
  %4 = getelementptr inbounds nuw %"struct.open3d::utility::constexpr_optional_base", ptr %3, i32 0, i32 1
  ret ptr %4
}

; Function Attrs: mustprogress nounwind ssp uwtable
define linkonce_odr noundef zeroext i1 @_ZNK6open3d7utility8optionalIdE11initializedEv(ptr noundef nonnull align 8 dereferenceable(16) %0) #0 comdat align 2 {
  %2 = alloca ptr, align 8
  store ptr %0, ptr %2, align 8, !tbaa !443
  %3 = load ptr, ptr %2, align 8
  %4 = getelementptr inbounds nuw %"struct.open3d::utility::constexpr_optional_base", ptr %3, i32 0, i32 0
  %5 = load i8, ptr %4, align 8, !tbaa !640, !range !642, !noundef !643
  %6 = trunc i8 %5 to i1
  ret i1 %6
}

; Function Attrs: mustprogress nounwind ssp uwtable
define linkonce_odr void @_ZN6open3d7utility8optionalIdEC2Ev(ptr noundef nonnull align 8 dereferenceable(16) %0) unnamed_addr #0 comdat align 2 {
  %2 = alloca ptr, align 8
  store ptr %0, ptr %2, align 8, !tbaa !443
  %3 = load ptr, ptr %2, align 8
  call void @_ZN6open3d7utility23constexpr_optional_baseIdEC2Ev(ptr noundef nonnull align 8 dereferenceable(16) %3) #21
  ret void
}

; Function Attrs: mustprogress nounwind ssp uwtable
define linkonce_odr void @_ZN6open3d7utility8optionalIdEC2EOS2_(ptr noundef nonnull align 8 dereferenceable(16) %0, ptr noundef nonnull align 8 dereferenceable(16) %1) unnamed_addr #0 comdat align 2 personality ptr @__gxx_personality_v0 {
  %3 = alloca ptr, align 8
  %4 = alloca ptr, align 8
  store ptr %0, ptr %3, align 8, !tbaa !443
  store ptr %1, ptr %4, align 8, !tbaa !443
  %5 = load ptr, ptr %3, align 8
  call void @_ZN6open3d7utility23constexpr_optional_baseIdEC2Ev(ptr noundef nonnull align 8 dereferenceable(16) %5) #21
  %6 = load ptr, ptr %4, align 8, !tbaa !443
  %7 = call noundef zeroext i1 @_ZNK6open3d7utility8optionalIdE11initializedEv(ptr noundef nonnull align 8 dereferenceable(16) %6) #21
  br i1 %7, label %8, label %16

8:                                                ; preds = %2
  %9 = invoke noundef ptr @_ZN6open3d7utility8optionalIdE7dataptrEv(ptr noundef nonnull align 8 dereferenceable(16) %5)
          to label %10 unwind label %17

10:                                               ; preds = %8
  %11 = load ptr, ptr %4, align 8, !tbaa !443
  %12 = invoke noundef nonnull align 8 dereferenceable(8) ptr @_ZNR6open3d7utility8optionalIdEdeEv(ptr noundef nonnull align 8 dereferenceable(16) %11)
          to label %13 unwind label %17

13:                                               ; preds = %10
  %14 = load double, ptr %12, align 8, !tbaa !13
  store double %14, ptr %9, align 8, !tbaa !13
  %15 = getelementptr inbounds nuw %"struct.open3d::utility::constexpr_optional_base", ptr %5, i32 0, i32 0
  store i8 1, ptr %15, align 8, !tbaa !640
  br label %16

16:                                               ; preds = %13, %2
  ret void

17:                                               ; preds = %10, %8
  %18 = landingpad { ptr, i32 }
          catch ptr null
  %19 = extractvalue { ptr, i32 } %18, 0
  call void @__clang_call_terminate(ptr %19) #23
  unreachable
}

; Function Attrs: mustprogress ssp uwtable
define linkonce_odr noundef nonnull align 8 dereferenceable(8) ptr @_ZNR6open3d7utility8optionalIdE5valueEv(ptr noundef nonnull align 8 dereferenceable(16) %0) #1 comdat align 2 personality ptr @__gxx_personality_v0 {
  %2 = alloca ptr, align 8
  %3 = alloca ptr, align 8
  %4 = alloca i1, align 1
  %5 = alloca ptr, align 8
  %6 = alloca i32, align 4
  store ptr %0, ptr %2, align 8, !tbaa !443
  %7 = load ptr, ptr %2, align 8
  %8 = call noundef zeroext i1 @_ZNK6open3d7utility8optionalIdE11initializedEv(ptr noundef nonnull align 8 dereferenceable(16) %7) #21
  store i1 false, ptr %4, align 1
  br i1 %8, label %9, label %11

9:                                                ; preds = %1
  %10 = call noundef nonnull align 8 dereferenceable(8) ptr @_ZNR6open3d7utility8optionalIdE13contained_valEv(ptr noundef nonnull align 8 dereferenceable(16) %7)
  br label %16

11:                                               ; preds = %1
  %12 = call ptr @__cxa_allocate_exception(i64 16) #21
  store ptr %12, ptr %3, align 8
  store i1 true, ptr %4, align 1
  invoke void @_ZN6open3d7utility19bad_optional_accessC2EPKc(ptr noundef nonnull align 8 dereferenceable(16) %12, ptr noundef @.str.4)
          to label %13 unwind label %18

13:                                               ; preds = %11
  call void @__cxa_throw(ptr %12, ptr @_ZTIN6open3d7utility19bad_optional_accessE, ptr @_ZNSt11logic_errorD2Ev) #24
  unreachable

14:                                               ; No predecessors!
  %15 = call noundef nonnull align 8 dereferenceable(8) ptr @_ZNR6open3d7utility8optionalIdE13contained_valEv(ptr noundef nonnull align 8 dereferenceable(16) %7)
  br label %16

16:                                               ; preds = %14, %9
  %17 = phi ptr [ %10, %9 ], [ %15, %14 ]
  ret ptr %17

18:                                               ; preds = %11
  %19 = landingpad { ptr, i32 }
          cleanup
  %20 = extractvalue { ptr, i32 } %19, 0
  store ptr %20, ptr %5, align 8
  %21 = extractvalue { ptr, i32 } %19, 1
  store i32 %21, ptr %6, align 4
  %22 = load i1, ptr %4, align 1
  br i1 %22, label %23, label %25

23:                                               ; preds = %18
  %24 = load ptr, ptr %3, align 8
  call void @__cxa_free_exception(ptr %24) #21
  br label %25

25:                                               ; preds = %23, %18
  br label %26

26:                                               ; preds = %25
  %27 = load ptr, ptr %5, align 8
  %28 = load i32, ptr %6, align 4
  %29 = insertvalue { ptr, i32 } poison, ptr %27, 0
  %30 = insertvalue { ptr, i32 } %29, i32 %28, 1
  resume { ptr, i32 } %30
}

; Function Attrs: mustprogress nounwind ssp uwtable
define linkonce_odr noundef zeroext i1 @_ZNK6open3d7utility8optionalIdE9has_valueEv(ptr noundef nonnull align 8 dereferenceable(16) %0) #0 comdat align 2 {
  %2 = alloca ptr, align 8
  store ptr %0, ptr %2, align 8, !tbaa !443
  %3 = load ptr, ptr %2, align 8
  %4 = call noundef zeroext i1 @_ZNK6open3d7utility8optionalIdE11initializedEv(ptr noundef nonnull align 8 dereferenceable(16) %3) #21
  ret i1 %4
}

; Function Attrs: mustprogress ssp uwtable
define void @_ZNK6open3d8geometry9Segment3D9ExactAABBERKNS0_22AxisAlignedBoundingBoxE(ptr dead_on_unwind noalias writable sret(%"class.open3d::utility::optional") align 8 %0, ptr noundef nonnull align 8 dereferenceable(120) %1, ptr noundef nonnull align 8 dereferenceable(120) %2) unnamed_addr #1 align 2 {
  %4 = alloca ptr, align 8
  %5 = alloca ptr, align 8
  %6 = alloca ptr, align 8
  %7 = alloca %"class.open3d::utility::optional", align 8
  %8 = alloca i32, align 4
  store ptr %0, ptr %4, align 8
  store ptr %1, ptr %5, align 8, !tbaa !41
  store ptr %2, ptr %6, align 8, !tbaa !17
  %9 = load ptr, ptr %5, align 8
  call void @llvm.lifetime.start.p0(i64 16, ptr %7) #21
  %10 = load ptr, ptr %6, align 8, !tbaa !17
  call void @_ZNK6open3d8geometry6Line3D9ExactAABBERKNS0_22AxisAlignedBoundingBoxE(ptr dead_on_unwind writable sret(%"class.open3d::utility::optional") align 8 %7, ptr noundef nonnull align 8 dereferenceable(88) %9, ptr noundef nonnull align 8 dereferenceable(120) %10)
  %11 = call noundef zeroext i1 @_ZNK6open3d7utility8optionalIdE9has_valueEv(ptr noundef nonnull align 8 dereferenceable(16) %7) #21
  br i1 %11, label %12, label %18

12:                                               ; preds = %3
  %13 = call noundef nonnull align 8 dereferenceable(8) ptr @_ZNR6open3d7utility8optionalIdE5valueEv(ptr noundef nonnull align 8 dereferenceable(16) %7)
  %14 = load double, ptr %13, align 8, !tbaa !13
  %15 = getelementptr inbounds nuw %"class.open3d::geometry::Segment3D", ptr %9, i32 0, i32 2
  %16 = load double, ptr %15, align 8, !tbaa !43
  %17 = fcmp ole double %14, %16
  br i1 %17, label %18, label %19

18:                                               ; preds = %12, %3
  call void @_ZN6open3d7utility8optionalIdEC2EOS2_(ptr noundef nonnull align 8 dereferenceable(16) %0, ptr noundef nonnull align 8 dereferenceable(16) %7) #21
  store i32 1, ptr %8, align 4
  br label %20

19:                                               ; preds = %12
  call void @_ZN6open3d7utility8optionalIdEC2Ev(ptr noundef nonnull align 8 dereferenceable(16) %0) #21
  store i32 1, ptr %8, align 4
  br label %20

20:                                               ; preds = %19, %18
  call void @llvm.lifetime.end.p0(i64 16, ptr %7) #21
  ret void
}