; Function Attrs: mustprogress ssp uwtable
define void @_ZNK6open3d8geometry9Segment3D9ExactAABBERKNS0_22AxisAlignedBoundingBoxE(ptr dead_on_unwind noalias writable writeonly sret(%"class.open3d::utility::optional") align 8 captures(none) initializes((0, 1), (8, 9)) %0, ptr noundef nonnull align 8 dereferenceable(120) %1, ptr noundef nonnull readonly align 8 captures(none) dereferenceable(120) %2) unnamed_addr #5 align 2 personality ptr @__gxx_personality_v0 {
  %4 = alloca %"class.open3d::utility::optional", align 8
  call void @llvm.lifetime.start.p0(i64 16, ptr nonnull %4) #22
  call void @_ZNK6open3d8geometry6Line3D9ExactAABBERKNS0_22AxisAlignedBoundingBoxE(ptr dead_on_unwind nonnull writable sret(%"class.open3d::utility::optional") align 8 %4, ptr noundef nonnull align 8 dereferenceable(88) %1, ptr noundef nonnull align 8 dereferenceable(120) %2)
  %5 = load i8, ptr %4, align 8, !tbaa !12, !range !38, !noundef !39
  %6 = trunc nuw i8 %5 to i1
  br i1 %6, label %_ZNR6open3d7utility8optionalIdE5valueEv.exit, label %12

_ZNR6open3d7utility8optionalIdE5valueEv.exit:     ; preds = %3
  %7 = getelementptr inbounds nuw i8, ptr %4, i64 8
  %8 = load double, ptr %7, align 8, !tbaa !10
  %9 = getelementptr inbounds nuw i8, ptr %1, i64 112
  %10 = load double, ptr %9, align 8, !tbaa !64
  %11 = fcmp ugt double %8, %10
  br i1 %11, label %16, label %14

12:                                               ; preds = %3
  store i8 0, ptr %0, align 8, !tbaa !12
  %13 = getelementptr inbounds nuw i8, ptr %0, i64 8
  store i8 0, ptr %13, align 8, !tbaa !4
  br label %_ZN6open3d7utility8optionalIdEC2EOS2_.exit

14:                                               ; preds = %_ZNR6open3d7utility8optionalIdE5valueEv.exit
  %15 = getelementptr inbounds nuw i8, ptr %0, i64 8
  store double %8, ptr %15, align 8, !tbaa !10
  store i8 1, ptr %0, align 8, !tbaa !12
  br label %_ZN6open3d7utility8optionalIdEC2EOS2_.exit

16:                                               ; preds = %_ZNR6open3d7utility8optionalIdE5valueEv.exit
  store i8 0, ptr %0, align 8, !tbaa !12
  %17 = getelementptr inbounds nuw i8, ptr %0, i64 8
  store i8 0, ptr %17, align 8, !tbaa !4
  br label %_ZN6open3d7utility8optionalIdEC2EOS2_.exit

_ZN6open3d7utility8optionalIdEC2EOS2_.exit:       ; preds = %14, %12, %16
  call void @llvm.lifetime.end.p0(i64 16, ptr nonnull %4) #22
  ret void
}